; Function Attrs: mustprogress uwtable
define internal void @_ZL32funnel_statistics_reload_packetsP16_funnel_ops_id_t(ptr noundef readonly %0) #0 {
  %.not = icmp eq ptr %0, null
  br i1 %.not, label %7, label %2

2:                                                ; preds = %1
  %3 = load ptr, ptr %0, align 8
  %.not4 = icmp eq ptr %3, null
  br i1 %.not4, label %7, label %4

4:                                                ; preds = %2
  %5 = getelementptr inbounds i8, ptr %3, i64 32
  %6 = load ptr, ptr %5, align 8
  tail call void @_ZN11CaptureFile6reloadEv(ptr noundef nonnull align 8 dereferenceable(48) %6)
  br label %7

7:                                                ; preds = %1, %2, %4
  ret void
}